target datalayout = "e-m:e-p270:32:32-p271:32:32-p272:64:64-i64:64-i128:128-f80:128-n8:16:32:64-S128"
target triple = "x86_64-pc-linux-gnu"

%struct.expert_field = type { i32, i32 }
%struct._packet_info = type { ptr, ptr, i32, i32, %struct.nstime_t, %struct.nstime_t, %struct.nstime_t, i32, ptr, ptr, ptr, ptr, %struct._address, %struct._address, %struct._address, %struct._address, %struct._address, %struct._address, i32, ptr, i32, %struct.anon, i32, i32, i32, i32, ptr, i32, ptr, ptr, i16, i16, i32, i32, i16, i32, i32, ptr, ptr, ptr, i8, i8, i16, i16, i16, i32, i16, i16, ptr, ptr, ptr, ptr, ptr, i32 }
%struct.nstime_t = type { i64, i32 }
%struct._address = type { i32, i32, ptr, ptr }
%struct.anon = type { i8, [3 x i8] }

@hf_gdsdb_connect_operation = internal global i32 0, align 4
@hf_gdsdb_connect_version = internal global i32 0, align 4
@hf_gdsdb_connect_client = internal global i32 0, align 4
@hf_gdsdb_connect_filename = internal global i32 0, align 4
@hf_gdsdb_connect_count = internal global i32 0, align 4
@hf_gdsdb_connect_userid = internal global i32 0, align 4
@hf_gdsdb_connect_pref = internal global i32 0, align 4
@hf_gdsdb_connect_pref_version = internal global i32 0, align 4
@hf_gdsdb_connect_pref_architecture = internal global i32 0, align 4
@hf_gdsdb_connect_pref_mintype = internal global i32 0, align 4
@hf_gdsdb_connect_pref_maxtype = internal global i32 0, align 4
@hf_gdsdb_connect_pref_weight = internal global i32 0, align 4
@ett_gdsdb_connect_pref = internal global i32 0, align 4
@ei_gdsdb_invalid_length = internal global %struct.expert_field zeroinitializer, align 4
@.str.280 = private unnamed_addr constant [5 x i8] c": %s\00", align 1
@.str.281 = private unnamed_addr constant [19 x i8] c"Invalid length: %d\00", align 1

; Function Attrs: nounwind uwtable
define internal i32 @add_uint_string(ptr noundef %0, i32 noundef %1, ptr noundef %2, i32 noundef %3) #0 {
  %5 = alloca i32, align 4
  %6 = alloca ptr, align 8
  %7 = alloca i32, align 4
  %8 = alloca ptr, align 8
  %9 = alloca i32, align 4
  %10 = alloca ptr, align 8
  %11 = alloca i32, align 4
  %12 = alloca i32, align 4
  store ptr %0, ptr %6, align 8
  store i32 %1, ptr %7, align 4
  store ptr %2, ptr %8, align 8
  store i32 %3, ptr %9, align 4
  %13 = load ptr, ptr %6, align 8
  %14 = load i32, ptr %7, align 4
  %15 = load ptr, ptr %8, align 8
  %16 = load i32, ptr %9, align 4
  %17 = call ptr @proto_tree_add_item(ptr noundef %13, i32 noundef %14, ptr noundef %15, i32 noundef %16, i32 noundef 4, i32 noundef 0)
  store ptr %17, ptr %10, align 8
  %18 = load ptr, ptr %8, align 8
  %19 = load i32, ptr %9, align 4
  %20 = call i32 @tvb_get_ntohl(ptr noundef %18, i32 noundef %19)
  %21 = call i32 @dword_align(i32 noundef %20)
  %22 = add i32 %21, 4
  store i32 %22, ptr %11, align 4
  %23 = load ptr, ptr %10, align 8
  %24 = load i32, ptr %11, align 4
  call void @proto_item_set_len(ptr noundef %23, i32 noundef %24)
  %25 = load i32, ptr %9, align 4
  %26 = load i32, ptr %11, align 4
  %27 = add i32 %25, %26
  store i32 %27, ptr %12, align 4
  %28 = load i32, ptr %11, align 4
  %29 = icmp slt i32 %28, 4
  br i1 %29, label %34, label %30

30:                                               ; preds = %4
  %31 = load i32, ptr %12, align 4
  %32 = load i32, ptr %9, align 4
  %33 = icmp slt i32 %31, %32
  br i1 %33, label %34, label %40

34:                                               ; preds = %30, %4
  %35 = load ptr, ptr %10, align 8
  %36 = load i32, ptr %11, align 4
  %37 = call ptr (ptr, ptr, ptr, ptr, ...) @expert_add_info_format(ptr noundef null, ptr noundef %35, ptr noundef @ei_gdsdb_invalid_length, ptr noundef @.str.281, i32 noundef %36)
  %38 = load ptr, ptr %8, align 8
  %39 = call i32 @tvb_reported_length(ptr noundef %38)
  store i32 %39, ptr %5, align 4
  br label %42

40:                                               ; preds = %30
  %41 = load i32, ptr %12, align 4
  store i32 %41, ptr %5, align 4
  br label %42

42:                                               ; preds = %40, %34
  %43 = load i32, ptr %5, align 4
  ret i32 %43
}

; Function Attrs: nounwind uwtable
define internal i32 @dword_align(i32 noundef %0) #0 {
  %2 = alloca i32, align 4
  store i32 %0, ptr %2, align 4
  %3 = load i32, ptr %2, align 4
  %4 = load i32, ptr %2, align 4
  %5 = and i32 %4, 3
  %6 = sub i32 4, %5
  %7 = add i32 %3, %6
  ret i32 %7
}

; Function Attrs: nounwind uwtable
define internal i32 @gdsdb_connect(ptr noundef %0, ptr noundef %1, ptr noundef %2, i32 noundef %3) #0 {
  %5 = alloca i32, align 4
  %6 = alloca ptr, align 8
  %7 = alloca ptr, align 8
  %8 = alloca ptr, align 8
  %9 = alloca i32, align 4
  %10 = alloca i32, align 4
  %11 = alloca i32, align 4
  %12 = alloca i32, align 4
  %13 = alloca i32, align 4
  %14 = alloca i32, align 4
  %15 = alloca ptr, align 8
  %16 = alloca ptr, align 8
  store ptr %0, ptr %6, align 8
  store ptr %1, ptr %7, align 8
  store ptr %2, ptr %8, align 8
  store i32 %3, ptr %9, align 4
  store i32 16, ptr %12, align 4
  %17 = load ptr, ptr %6, align 8
  %18 = load i32, ptr %9, align 4
  %19 = call i32 @tvb_reported_length_remaining(ptr noundef %17, i32 noundef %18)
  store i32 %19, ptr %14, align 4
  %20 = load i32, ptr %14, align 4
  %21 = load i32, ptr %12, align 4
  %22 = icmp slt i32 %20, %21
  br i1 %22, label %23, label %24

23:                                               ; preds = %4
  store i32 -1, ptr %5, align 4
  br label %160

24:                                               ; preds = %4
  %25 = load ptr, ptr %6, align 8
  %26 = load i32, ptr %9, align 4
  %27 = add i32 %26, 12
  %28 = call i32 @tvb_get_ntohl(ptr noundef %25, i32 noundef %27)
  store i32 %28, ptr %11, align 4
  %29 = load i32, ptr %11, align 4
  %30 = call i32 @dword_align(i32 noundef %29)
  %31 = add i32 4, %30
  %32 = load i32, ptr %12, align 4
  %33 = add i32 %32, %31
  store i32 %33, ptr %12, align 4
  %34 = load i32, ptr %14, align 4
  %35 = load i32, ptr %12, align 4
  %36 = add i32 %35, 4
  %37 = icmp slt i32 %34, %36
  br i1 %37, label %38, label %39

38:                                               ; preds = %24
  store i32 -1, ptr %5, align 4
  br label %160

39:                                               ; preds = %24
  %40 = load ptr, ptr %6, align 8
  %41 = load i32, ptr %9, align 4
  %42 = load i32, ptr %12, align 4
  %43 = add i32 %41, %42
  %44 = sub i32 %43, 4
  %45 = call i32 @tvb_get_ntohl(ptr noundef %40, i32 noundef %44)
  store i32 %45, ptr %10, align 4
  %46 = load i32, ptr %10, align 4
  %47 = mul i32 %46, 20
  %48 = add i32 4, %47
  %49 = load i32, ptr %12, align 4
  %50 = add i32 %49, %48
  store i32 %50, ptr %12, align 4
  %51 = load i32, ptr %14, align 4
  %52 = load i32, ptr %12, align 4
  %53 = icmp slt i32 %51, %52
  br i1 %53, label %54, label %55

54:                                               ; preds = %39
  store i32 -1, ptr %5, align 4
  br label %160

55:                                               ; preds = %39
  %56 = load ptr, ptr %8, align 8
  %57 = load i32, ptr @hf_gdsdb_connect_operation, align 4
  %58 = load ptr, ptr %6, align 8
  %59 = load i32, ptr %9, align 4
  %60 = call ptr @proto_tree_add_item(ptr noundef %56, i32 noundef %57, ptr noundef %58, i32 noundef %59, i32 noundef 4, i32 noundef 0)
  %61 = load i32, ptr %9, align 4
  %62 = add i32 %61, 4
  store i32 %62, ptr %9, align 4
  %63 = load ptr, ptr %8, align 8
  %64 = load i32, ptr @hf_gdsdb_connect_version, align 4
  %65 = load ptr, ptr %6, align 8
  %66 = load i32, ptr %9, align 4
  %67 = call ptr @proto_tree_add_item(ptr noundef %63, i32 noundef %64, ptr noundef %65, i32 noundef %66, i32 noundef 4, i32 noundef 0)
  %68 = load i32, ptr %9, align 4
  %69 = add i32 %68, 4
  store i32 %69, ptr %9, align 4
  %70 = load ptr, ptr %8, align 8
  %71 = load i32, ptr @hf_gdsdb_connect_client, align 4
  %72 = load ptr, ptr %6, align 8
  %73 = load i32, ptr %9, align 4
  %74 = call ptr @proto_tree_add_item(ptr noundef %70, i32 noundef %71, ptr noundef %72, i32 noundef %73, i32 noundef 4, i32 noundef 0)
  %75 = load i32, ptr %9, align 4
  %76 = add i32 %75, 4
  store i32 %76, ptr %9, align 4
  %77 = load ptr, ptr %8, align 8
  %78 = load i32, ptr @hf_gdsdb_connect_filename, align 4
  %79 = load ptr, ptr %6, align 8
  %80 = load i32, ptr %9, align 4
  %81 = call i32 @add_uint_string(ptr noundef %77, i32 noundef %78, ptr noundef %79, i32 noundef %80)
  store i32 %81, ptr %9, align 4
  %82 = load ptr, ptr %8, align 8
  %83 = load i32, ptr @hf_gdsdb_connect_count, align 4
  %84 = load ptr, ptr %6, align 8
  %85 = load i32, ptr %9, align 4
  %86 = call ptr @proto_tree_add_item(ptr noundef %82, i32 noundef %83, ptr noundef %84, i32 noundef %85, i32 noundef 4, i32 noundef 0)
  %87 = load i32, ptr %9, align 4
  %88 = add i32 %87, 4
  store i32 %88, ptr %9, align 4
  %89 = load ptr, ptr %7, align 8
  %90 = getelementptr inbounds %struct._packet_info, ptr %89, i32 0, i32 1
  %91 = load ptr, ptr %90, align 8
  %92 = load ptr, ptr %7, align 8
  %93 = getelementptr inbounds %struct._packet_info, ptr %92, i32 0, i32 50
  %94 = load ptr, ptr %93, align 8
  %95 = load ptr, ptr %6, align 8
  %96 = load i32, ptr %9, align 4
  %97 = add i32 %96, 4
  %98 = load ptr, ptr %6, align 8
  %99 = load i32, ptr %9, align 4
  %100 = call i32 @tvb_get_ntohl(ptr noundef %98, i32 noundef %99)
  %101 = call ptr @tvb_format_text(ptr noundef %94, ptr noundef %95, i32 noundef %97, i32 noundef %100)
  call void (ptr, i32, ptr, ...) @col_append_fstr(ptr noundef %91, i32 noundef 25, ptr noundef @.str.280, ptr noundef %101)
  %102 = load ptr, ptr %8, align 8
  %103 = load i32, ptr @hf_gdsdb_connect_userid, align 4
  %104 = load ptr, ptr %6, align 8
  %105 = load i32, ptr %9, align 4
  %106 = call i32 @add_uint_string(ptr noundef %102, i32 noundef %103, ptr noundef %104, i32 noundef %105)
  store i32 %106, ptr %9, align 4
  store i32 0, ptr %13, align 4
  br label %107

107:                                              ; preds = %155, %55
  %108 = load i32, ptr %13, align 4
  %109 = load i32, ptr %10, align 4
  %110 = icmp slt i32 %108, %109
  br i1 %110, label %111, label %158

111:                                              ; preds = %107
  %112 = load ptr, ptr %8, align 8
  %113 = load i32, ptr @hf_gdsdb_connect_pref, align 4
  %114 = load ptr, ptr %6, align 8
  %115 = load i32, ptr %9, align 4
  %116 = call ptr @proto_tree_add_item(ptr noundef %112, i32 noundef %113, ptr noundef %114, i32 noundef %115, i32 noundef 20, i32 noundef 0)
  store ptr %116, ptr %15, align 8
  %117 = load ptr, ptr %15, align 8
  %118 = load i32, ptr @ett_gdsdb_connect_pref, align 4
  %119 = call ptr @proto_item_add_subtree(ptr noundef %117, i32 noundef %118)
  store ptr %119, ptr %16, align 8
  %120 = load ptr, ptr %16, align 8
  %121 = load i32, ptr @hf_gdsdb_connect_pref_version, align 4
  %122 = load ptr, ptr %6, align 8
  %123 = load i32, ptr %9, align 4
  %124 = call ptr @proto_tree_add_item(ptr noundef %120, i32 noundef %121, ptr noundef %122, i32 noundef %123, i32 noundef 4, i32 noundef 0)
  %125 = load i32, ptr %9, align 4
  %126 = add i32 %125, 4
  store i32 %126, ptr %9, align 4
  %127 = load ptr, ptr %16, align 8
  %128 = load i32, ptr @hf_gdsdb_connect_pref_architecture, align 4
  %129 = load ptr, ptr %6, align 8
  %130 = load i32, ptr %9, align 4
  %131 = call ptr @proto_tree_add_item(ptr noundef %127, i32 noundef %128, ptr noundef %129, i32 noundef %130, i32 noundef 4, i32 noundef 0)
  %132 = load i32, ptr %9, align 4
  %133 = add i32 %132, 4
  store i32 %133, ptr %9, align 4
  %134 = load ptr, ptr %16, align 8
  %135 = load i32, ptr @hf_gdsdb_connect_pref_mintype, align 4
  %136 = load ptr, ptr %6, align 8
  %137 = load i32, ptr %9, align 4
  %138 = call ptr @proto_tree_add_item(ptr noundef %134, i32 noundef %135, ptr noundef %136, i32 noundef %137, i32 noundef 4, i32 noundef 0)
  %139 = load i32, ptr %9, align 4
  %140 = add i32 %139, 4
  store i32 %140, ptr %9, align 4
  %141 = load ptr, ptr %16, align 8
  %142 = load i32, ptr @hf_gdsdb_connect_pref_maxtype, align 4
  %143 = load ptr, ptr %6, align 8
  %144 = load i32, ptr %9, align 4
  %145 = call ptr @proto_tree_add_item(ptr noundef %141, i32 noundef %142, ptr noundef %143, i32 noundef %144, i32 noundef 4, i32 noundef 0)
  %146 = load i32, ptr %9, align 4
  %147 = add i32 %146, 4
  store i32 %147, ptr %9, align 4
  %148 = load ptr, ptr %16, align 8
  %149 = load i32, ptr @hf_gdsdb_connect_pref_weight, align 4
  %150 = load ptr, ptr %6, align 8
  %151 = load i32, ptr %9, align 4
  %152 = call ptr @proto_tree_add_item(ptr noundef %148, i32 noundef %149, ptr noundef %150, i32 noundef %151, i32 noundef 4, i32 noundef 0)
  %153 = load i32, ptr %9, align 4
  %154 = add i32 %153, 4
  store i32 %154, ptr %9, align 4
  br label %155

155:                                              ; preds = %111
  %156 = load i32, ptr %13, align 4
  %157 = add i32 %156, 1
  store i32 %157, ptr %13, align 4
  br label %107, !llvm.loop !6

158:                                              ; preds = %107
  %159 = load i32, ptr %9, align 4
  store i32 %159, ptr %5, align 4
  br label %160

160:                                              ; preds = %158, %54, %38, %23
  %161 = load i32, ptr %5, align 4
  ret i32 %161
}