; Function Attrs: nounwind uwtable
define internal i32 @gdsdb_connect(ptr noundef %0, ptr noundef readonly captures(none) %1, ptr noundef %2, i32 noundef %3) #0 {
  %5 = tail call i32 @tvb_reported_length_remaining(ptr noundef %0, i32 noundef %3) #3
  %6 = icmp slt i32 %5, 16
  br i1 %6, label %.loopexit, label %7

7:                                                ; preds = %4
  %8 = add i32 %3, 12
  %9 = tail call i32 @tvb_get_ntohl(ptr noundef %0, i32 noundef %8) #3
  %reass.sub.i = and i32 %9, -4
  %10 = add i32 %reass.sub.i, 28
  %11 = icmp slt i32 %5, %10
  br i1 %11, label %.loopexit, label %12

12:                                               ; preds = %7
  %13 = add i32 %3, %reass.sub.i
  %14 = add i32 %13, 20
  %15 = tail call i32 @tvb_get_ntohl(ptr noundef %0, i32 noundef %14) #3
  %16 = mul i32 %15, 20
  %17 = add i32 %10, %16
  %18 = icmp slt i32 %5, %17
  br i1 %18, label %.loopexit, label %19

19:                                               ; preds = %12
  %20 = load i32, ptr @hf_gdsdb_connect_operation, align 4
  %21 = tail call ptr @proto_tree_add_item(ptr noundef %2, i32 noundef %20, ptr noundef %0, i32 noundef %3, i32 noundef 4, i32 noundef 0) #3
  %22 = add i32 %3, 4
  %23 = load i32, ptr @hf_gdsdb_connect_version, align 4
  %24 = tail call ptr @proto_tree_add_item(ptr noundef %2, i32 noundef %23, ptr noundef %0, i32 noundef %22, i32 noundef 4, i32 noundef 0) #3
  %25 = add i32 %3, 8
  %26 = load i32, ptr @hf_gdsdb_connect_client, align 4
  %27 = tail call ptr @proto_tree_add_item(ptr noundef %2, i32 noundef %26, ptr noundef %0, i32 noundef %25, i32 noundef 4, i32 noundef 0) #3
  %28 = load i32, ptr @hf_gdsdb_connect_filename, align 4
  %29 = tail call ptr @proto_tree_add_item(ptr noundef %2, i32 noundef %28, ptr noundef %0, i32 noundef %8, i32 noundef 4, i32 noundef 0) #3
  %30 = tail call i32 @tvb_get_ntohl(ptr noundef %0, i32 noundef %8) #3
  %reass.sub.i.i = and i32 %30, -4
  %31 = add i32 %reass.sub.i.i, 8
  tail call void @proto_item_set_len(ptr noundef %29, i32 noundef %31) #3
  %32 = add i32 %31, %8
  %33 = add i32 %30, -2147483640
  %34 = icmp ult i32 %33, -2147483644
  %35 = icmp slt i32 %32, %8
  %or.cond.i = or i1 %34, %35
  br i1 %or.cond.i, label %36, label %add_uint_string.exit

36:                                               ; preds = %19
  %37 = tail call ptr (ptr, ptr, ptr, ptr, ...) @expert_add_info_format(ptr noundef null, ptr noundef %29, ptr noundef nonnull @ei_gdsdb_invalid_length, ptr noundef nonnull @.str.281, i32 noundef %31) #3
  %38 = tail call i32 @tvb_reported_length(ptr noundef %0) #3
  br label %add_uint_string.exit

add_uint_string.exit:                             ; preds = %19, %36
  %.0.i = phi i32 [ %38, %36 ], [ %32, %19 ]
  %39 = load i32, ptr @hf_gdsdb_connect_count, align 4
  %40 = tail call ptr @proto_tree_add_item(ptr noundef %2, i32 noundef %39, ptr noundef %0, i32 noundef %.0.i, i32 noundef 4, i32 noundef 0) #3
  %41 = add i32 %.0.i, 4
  %42 = getelementptr inbounds nuw i8, ptr %1, i64 8
  %43 = load ptr, ptr %42, align 8
  %44 = getelementptr inbounds nuw i8, ptr %1, i64 408
  %45 = load ptr, ptr %44, align 8
  %46 = add i32 %.0.i, 8
  %47 = tail call i32 @tvb_get_ntohl(ptr noundef %0, i32 noundef %41) #3
  %48 = tail call ptr @tvb_format_text(ptr noundef %45, ptr noundef %0, i32 noundef %46, i32 noundef %47) #3
  tail call void (ptr, i32, ptr, ...) @col_append_fstr(ptr noundef %43, i32 noundef 25, ptr noundef nonnull @.str.280, ptr noundef %48) #3
  %49 = load i32, ptr @hf_gdsdb_connect_userid, align 4
  %50 = tail call ptr @proto_tree_add_item(ptr noundef %2, i32 noundef %49, ptr noundef %0, i32 noundef %41, i32 noundef 4, i32 noundef 0) #3
  %51 = tail call i32 @tvb_get_ntohl(ptr noundef %0, i32 noundef %41) #3
  %reass.sub.i.i76 = and i32 %51, -4
  %52 = add i32 %reass.sub.i.i76, 8
  tail call void @proto_item_set_len(ptr noundef %50, i32 noundef %52) #3
  %53 = add i32 %52, %41
  %54 = add i32 %51, -2147483640
  %55 = icmp ult i32 %54, -2147483644
  %56 = icmp slt i32 %53, %41
  %or.cond.i77 = or i1 %55, %56
  br i1 %or.cond.i77, label %57, label %add_uint_string.exit79

57:                                               ; preds = %add_uint_string.exit
  %58 = tail call ptr (ptr, ptr, ptr, ptr, ...) @expert_add_info_format(ptr noundef null, ptr noundef %50, ptr noundef nonnull @ei_gdsdb_invalid_length, ptr noundef nonnull @.str.281, i32 noundef %52) #3
  %59 = tail call i32 @tvb_reported_length(ptr noundef %0) #3
  br label %add_uint_string.exit79

add_uint_string.exit79:                           ; preds = %add_uint_string.exit, %57
  %.0.i78 = phi i32 [ %59, %57 ], [ %53, %add_uint_string.exit ]
  %60 = icmp sgt i32 %15, 0
  br i1 %60, label %.lr.ph, label %.loopexit

.lr.ph:                                           ; preds = %add_uint_string.exit79, %.lr.ph
  %.07381 = phi i32 [ %79, %.lr.ph ], [ %.0.i78, %add_uint_string.exit79 ]
  %.07480 = phi i32 [ %80, %.lr.ph ], [ 0, %add_uint_string.exit79 ]
  %61 = load i32, ptr @hf_gdsdb_connect_pref, align 4
  %62 = tail call ptr @proto_tree_add_item(ptr noundef %2, i32 noundef %61, ptr noundef %0, i32 noundef %.07381, i32 noundef 20, i32 noundef 0) #3
  %63 = load i32, ptr @ett_gdsdb_connect_pref, align 4
  %64 = tail call ptr @proto_item_add_subtree(ptr noundef %62, i32 noundef %63) #3
  %65 = load i32, ptr @hf_gdsdb_connect_pref_version, align 4
  %66 = tail call ptr @proto_tree_add_item(ptr noundef %64, i32 noundef %65, ptr noundef %0, i32 noundef %.07381, i32 noundef 4, i32 noundef 0) #3
  %67 = add i32 %.07381, 4
  %68 = load i32, ptr @hf_gdsdb_connect_pref_architecture, align 4
  %69 = tail call ptr @proto_tree_add_item(ptr noundef %64, i32 noundef %68, ptr noundef %0, i32 noundef %67, i32 noundef 4, i32 noundef 0) #3
  %70 = add i32 %.07381, 8
  %71 = load i32, ptr @hf_gdsdb_connect_pref_mintype, align 4
  %72 = tail call ptr @proto_tree_add_item(ptr noundef %64, i32 noundef %71, ptr noundef %0, i32 noundef %70, i32 noundef 4, i32 noundef 0) #3
  %73 = add i32 %.07381, 12
  %74 = load i32, ptr @hf_gdsdb_connect_pref_maxtype, align 4
  %75 = tail call ptr @proto_tree_add_item(ptr noundef %64, i32 noundef %74, ptr noundef %0, i32 noundef %73, i32 noundef 4, i32 noundef 0) #3
  %76 = add i32 %.07381, 16
  %77 = load i32, ptr @hf_gdsdb_connect_pref_weight, align 4
  %78 = tail call ptr @proto_tree_add_item(ptr noundef %64, i32 noundef %77, ptr noundef %0, i32 noundef %76, i32 noundef 4, i32 noundef 0) #3
  %79 = add i32 %.07381, 20
  %80 = add nuw nsw i32 %.07480, 1
  %exitcond.not = icmp eq i32 %80, %15
  br i1 %exitcond.not, label %.loopexit, label %.lr.ph, !llvm.loop !4

.loopexit:                                        ; preds = %.lr.ph, %add_uint_string.exit79, %12, %7, %4
  %.0 = phi i32 [ -1, %4 ], [ -1, %7 ], [ -1, %12 ], [ %.0.i78, %add_uint_string.exit79 ], [ %79, %.lr.ph ]
  ret i32 %.0
}